(lp0
VEC1A
p1
aVEC1M
p2
aVEC1N
p3
aVEC1P
p4
aVEC1R
p5
aVEC1V
p6
aVEC1Y
p7
aVEC2A
p8
aVEC2M
p9
aVEC2N
p10
aVEC2P
p11
aVEC2R
p12
aVEC2V
p13
aVEC2Y
p14
aVEC3A
p15
aVEC3M
p16
aVEC3N
p17
aVEC3P
p18
aVEC3R
p19
aVEC3V
p20
aVEC4A
p21
aVEC4M
p22
aVEC4N
p23
aVEC4P
p24
aVEC4R
p25
aVEC4V
p26
aVEC4Y
p27
aVWC1A
p28
aVWC1B
p29
aVWC1E
p30
aVWC1H
p31
aVWC1N
p32
aVWC1R
p33
aVWC1V
p34
aVWC1X
p35
aVWC2A
p36
aVWC2B
p37
aVWC2E
p38
aVWC2H
p39
aVWC2N
p40
aVWC2R
p41
aVE1
p42
aVE2
p43
aVE3
p44
aVE4
p45
aVE5
p46
aVE6
p47
aVE7
p48
aVE8
p49
aVE9
p50
aVE10
p51
aVE11
p52
aVE12
p53
aVE13
p54
aVE14
p55
aVE15
p56
aVE16
p57
aVE17
p58
aVE18
p59
aVE20
p60
aVN1
p61
aVN2
p62
aVN3
p63
aVN4
p64
aVN5
p65
aVN6
p66
aVN7
p67
aVN8
p68
aVN9
p69
aVN10
p70
aVN11
p71
aVN12
p72
aVN13
p73
aVN14
p74
aVN15
p75
aVN16
p76
aVN17
p77
aVN18
p78
aVN19
p79
aVN20
p80
aVN21
p81
aVN22
p82
aVNW1
p83
aVNW2
p84
aVNW3
p85
aVNW4
p86
aVNW5
p87
aVNW6
p88
aVNW7
p89
aVNW8
p90
aVNW9
p91
aVNW10
p92
aVNW11
p93
aVSE1
p94
aVSE2
p95
aVSE3
p96
aVSE4
p97
aVSE5
p98
aVSE6
p99
aVSE7
p100
aVSE8
p101
aVSE9
p102
aVSE10
p103
aVSE11
p104
aVSE12
p105
aVSE13
p106
aVSE14
p107
aVSE15
p108
aVSE16
p109
aVSE17
p110
aVSE18
p111
aVSE19
p112
aVSE20
p113
aVSE21
p114
aVSE22
p115
aVSE23
p116
aVSE24
p117
aVSE25
p118
aVSE26
p119
aVSE27
p120
aVSE28
p121
aVSW1
p122
aVSW2
p123
aVSW3
p124
aVSW4
p125
aVSW5
p126
aVSW6
p127
aVSW7
p128
aVSW8
p129
aVSW9
p130
aVSW10
p131
aVSW11
p132
aVSW12
p133
aVSW13
p134
aVSW14
p135
aVSW15
p136
aVSW16
p137
aVSW17
p138
aVSW18
p139
aVSW19
p140
aVSW20
p141
aVW1
p142
aVW2
p143
aVW3
p144
aVW4
p145
aVW5
p146
aVW6
p147
aVW7
p148
aVW8
p149
aVW9
p150
aVW10
p151
aVW11
p152
aVW12
p153
aVW13
p154
aVW14
p155
aVBR
p156
aVCR
p157
aVDA
p158
aVEN
p159
aVHA
p160
aVIG
p161
aVKT
p162
aVRM
p163
aVSM
p164
aVTW
p165
aVUB
p166
aVWD
p167
a.